target datalayout = "e-m:e-p270:32:32-p271:32:32-p272:64:64-i64:64-i128:128-f80:128-n8:16:32:64-S128"
target triple = "x86_64-pc-linux-gnu"

; Function Attrs: inlinehint mustprogress nounwind uwtable
define internal noundef signext i8 @_ZL9U_FAILURE10UErrorCode(i32 noundef %0) #2 {
  %2 = alloca i32, align 4
  store i32 %0, ptr %2, align 4, !tbaa !16
  %3 = load i32, ptr %2, align 4, !tbaa !16
  %4 = icmp sgt i32 %3, 0
  %5 = zext i1 %4 to i8
  ret i8 %5
}

; Function Attrs: mustprogress nounwind uwtable
define internal noundef i32 @_ZL16uprv_copyArray16PK12UDataSwapperPKviPvP10UErrorCode(ptr noundef %0, ptr noundef %1, i32 noundef %2, ptr noundef %3, ptr noundef %4) #7 {
  %6 = alloca i32, align 4
  %7 = alloca ptr, align 8
  %8 = alloca ptr, align 8
  %9 = alloca i32, align 4
  %10 = alloca ptr, align 8
  %11 = alloca ptr, align 8
  store ptr %0, ptr %7, align 8, !tbaa !3
  store ptr %1, ptr %8, align 8, !tbaa !15
  store i32 %2, ptr %9, align 4, !tbaa !12
  store ptr %3, ptr %10, align 8, !tbaa !15
  store ptr %4, ptr %11, align 8, !tbaa !15
  %12 = load ptr, ptr %11, align 8, !tbaa !15
  %13 = icmp eq ptr %12, null
  br i1 %13, label %19, label %14

14:                                               ; preds = %5
  %15 = load ptr, ptr %11, align 8, !tbaa !15
  %16 = load i32, ptr %15, align 4, !tbaa !16
  %17 = call noundef signext i8 @_ZL9U_FAILURE10UErrorCode(i32 noundef %16)
  %18 = icmp ne i8 %17, 0
  br i1 %18, label %19, label %20

19:                                               ; preds = %14, %5
  store i32 0, ptr %6, align 4
  br label %54

20:                                               ; preds = %14
  %21 = load ptr, ptr %7, align 8, !tbaa !3
  %22 = icmp eq ptr %21, null
  br i1 %22, label %36, label %23

23:                                               ; preds = %20
  %24 = load ptr, ptr %8, align 8, !tbaa !15
  %25 = icmp eq ptr %24, null
  br i1 %25, label %36, label %26

26:                                               ; preds = %23
  %27 = load i32, ptr %9, align 4, !tbaa !12
  %28 = icmp slt i32 %27, 0
  br i1 %28, label %36, label %29

29:                                               ; preds = %26
  %30 = load i32, ptr %9, align 4, !tbaa !12
  %31 = and i32 %30, 1
  %32 = icmp ne i32 %31, 0
  br i1 %32, label %36, label %33

33:                                               ; preds = %29
  %34 = load ptr, ptr %10, align 8, !tbaa !15
  %35 = icmp eq ptr %34, null
  br i1 %35, label %36, label %38

36:                                               ; preds = %33, %29, %26, %23, %20
  %37 = load ptr, ptr %11, align 8, !tbaa !15
  store i32 1, ptr %37, align 4, !tbaa !16
  store i32 0, ptr %6, align 4
  br label %54

38:                                               ; preds = %33
  %39 = load i32, ptr %9, align 4, !tbaa !12
  %40 = icmp sgt i32 %39, 0
  br i1 %40, label %41, label %52

41:                                               ; preds = %38
  %42 = load ptr, ptr %8, align 8, !tbaa !15
  %43 = load ptr, ptr %10, align 8, !tbaa !15
  %44 = icmp ne ptr %42, %43
  br i1 %44, label %45, label %52

45:                                               ; preds = %41
  br label %46

46:                                               ; preds = %45
  %47 = load ptr, ptr %10, align 8, !tbaa !15
  %48 = load ptr, ptr %8, align 8, !tbaa !15
  %49 = load i32, ptr %9, align 4, !tbaa !12
  %50 = sext i32 %49 to i64
  call void @llvm.memcpy.p0.p0.i64(ptr align 1 %47, ptr align 1 %48, i64 %50, i1 false)
  br label %51

51:                                               ; preds = %46
  br label %52

52:                                               ; preds = %51, %41, %38
  %53 = load i32, ptr %9, align 4, !tbaa !12
  store i32 %53, ptr %6, align 4
  br label %54

54:                                               ; preds = %52, %36, %19
  %55 = load i32, ptr %6, align 4
  ret i32 %55
}