; Function Attrs: mustprogress nofree norecurse nosync nounwind willreturn memory(argmem: readwrite) uwtable
define internal noundef range(i32 0, -2147483648) i32 @_ZL16uprv_copyArray16PK12UDataSwapperPKviPvP10UErrorCode(ptr noundef readnone %0, ptr noundef readonly %1, i32 noundef %2, ptr noundef writeonly %3, ptr noundef %4) #9 {
  %6 = icmp eq ptr %4, null
  br i1 %6, label %23, label %7

7:                                                ; preds = %5
  %8 = load i32, ptr %4, align 4, !tbaa !9
  %9 = icmp slt i32 %8, 1
  br i1 %9, label %10, label %23

10:                                               ; preds = %7
  %11 = icmp eq ptr %0, null
  %12 = icmp eq ptr %1, null
  %or.cond = or i1 %11, %12
  %13 = icmp slt i32 %2, 0
  %or.cond3 = or i1 %or.cond, %13
  br i1 %or.cond3, label %18, label %14

14:                                               ; preds = %10
  %15 = and i32 %2, 1
  %16 = icmp ne i32 %15, 0
  %17 = icmp eq ptr %3, null
  %or.cond5 = or i1 %16, %17
  br i1 %or.cond5, label %18, label %19

18:                                               ; preds = %14, %10
  store i32 1, ptr %4, align 4, !tbaa !9
  br label %23

19:                                               ; preds = %14
  %20 = icmp eq i32 %2, 0
  %.not24 = icmp eq ptr %1, %3
  %or.cond25 = or i1 %20, %.not24
  br i1 %or.cond25, label %23, label %21

21:                                               ; preds = %19
  %22 = zext nneg i32 %2 to i64
  tail call void @llvm.memcpy.p0.p0.i64(ptr nonnull align 1 %3, ptr nonnull align 1 %1, i64 %22, i1 false)
  br label %23

23:                                               ; preds = %19, %21, %5, %7, %18
  %.0 = phi i32 [ 0, %18 ], [ 0, %7 ], [ 0, %5 ], [ %2, %21 ], [ %2, %19 ]
  ret i32 %.0
}